; Function Attrs: mustprogress nounwind uwtable
define dso_local noundef zeroext i1 @_ZN4llvm14CombinerHelper14tryCombineCopyERNS_12MachineInstrE(ptr nocapture noundef nonnull readonly align 8 dereferenceable(72) %0, ptr noundef nonnull align 8 dereferenceable(70) %1) local_unnamed_addr #0 align 2 {
  %3 = getelementptr inbounds nuw i8, ptr %1, i64 68
  %4 = load i16, ptr %3, align 4
  %.not.i = icmp eq i16 %4, 19
  br i1 %.not.i, label %_ZN4llvm14CombinerHelper16matchCombineCopyERNS_12MachineInstrE.exit, label %_ZN4llvm14CombinerHelper16matchCombineCopyERNS_12MachineInstrE.exit.thread

_ZN4llvm14CombinerHelper16matchCombineCopyERNS_12MachineInstrE.exit: ; preds = %2
  %5 = getelementptr inbounds nuw i8, ptr %1, i64 32
  %6 = load ptr, ptr %5, align 8
  %7 = getelementptr inbounds nuw i8, ptr %6, i64 4
  %8 = load i32, ptr %7, align 4
  %9 = getelementptr inbounds i8, ptr %6, i64 36
  %10 = load i32, ptr %9, align 4
  %11 = getelementptr inbounds nuw i8, ptr %0, i64 8
  %12 = load ptr, ptr %11, align 8
  %13 = tail call noundef zeroext i1 @_ZN4llvm13canReplaceRegENS_8RegisterES0_RNS_19MachineRegisterInfoE(i32 %8, i32 %10, ptr noundef nonnull align 8 dereferenceable(512) %12) #27
  br i1 %13, label %14, label %_ZN4llvm14CombinerHelper16matchCombineCopyERNS_12MachineInstrE.exit.thread

14:                                               ; preds = %_ZN4llvm14CombinerHelper16matchCombineCopyERNS_12MachineInstrE.exit
  tail call void @_ZN4llvm14CombinerHelper16applyCombineCopyERNS_12MachineInstrE(ptr noundef nonnull align 8 dereferenceable(72) %0, ptr noundef nonnull align 8 dereferenceable(70) %1)
  br label %_ZN4llvm14CombinerHelper16matchCombineCopyERNS_12MachineInstrE.exit.thread

_ZN4llvm14CombinerHelper16matchCombineCopyERNS_12MachineInstrE.exit.thread: ; preds = %2, %_ZN4llvm14CombinerHelper16matchCombineCopyERNS_12MachineInstrE.exit, %14
  %.0.i5 = phi i1 [ false, %_ZN4llvm14CombinerHelper16matchCombineCopyERNS_12MachineInstrE.exit ], [ true, %14 ], [ false, %2 ]
  ret i1 %.0.i5
}